issuer :/CN=Certification Authority/O=mpcNET/C=IT
subject:/Email=madwolf@comune.modena.it/CN=Massimiliano Pala/OU=CA Manager/O=mpcNET/C=IT
serial :03

Certificate:
    Data:
        Version: 3 (0x2)
        Serial Number: 3 (0x3)
        Signature Algorithm: md5WithRSAEncryption
        Issuer: CN=Certification Authority, O=mpcNET, C=IT
        Validity
            Not Before: Feb 22 18:12:54 2000 GMT
            Not After : Feb 21 18:12:54 2001 GMT
        Subject: Email=madwolf@comune.modena.it, CN=Massimiliano Pala, OU=CA Manager, O=mpcNET, C=IT
        Subject Public Key Info:
            Public Key Algorithm: rsaEncryption
            RSA Public Key: (1024 bit)
                Modulus (1024 bit):
                    00:bb:09:86:08:bb:82:cd:a8:47:39:9a:05:a2:2b:
                    41:26:69:2d:2d:76:24:c6:b9:3b:5a:36:e9:bb:c9:
                    2d:c9:93:8e:f0:a3:10:1c:c8:2c:8b:7b:c5:b2:49:
                    01:a0:c3:f0:68:5c:3a:1a:c3:52:df:19:2f:27:27:
                    9d:aa:14:34:30:f5:f6:f7:8b:77:17:bd:a0:bd:1e:
                    ae:84:78:bc:73:6f:88:21:30:2a:da:1a:d7:41:8a:
                    43:1d:82:94:8b:b0:f7:50:d7:2d:29:ce:4c:9a:26:
                    49:ad:5a:7c:19:0d:8b:4f:a4:f1:b6:6e:a0:74:69:
                    53:63:2b:c3:be:29:65:48:c9
                Exponent: 65537 (0x10001)
        X509v3 extensions:
            X509v3 Basic Constraints: 
                CA:FALSE
            Netscape Cert Type: 
                SSL Client, S/MIME
            X509v3 Key Usage: 
                Digital Signature, Non Repudiation, Key Encipherment
            Netscape Comment: 
                mpcNET User Certificate
            X509v3 Subject Key Identifier: 
                C2:24:5D:AC:12:80:0B:4D:8F:2B:BC:7A:FE:E6:86:9C:35:29:27:5D
            X509v3 Authority Key Identifier: 
                keyid:F6:24:F6:F3:9F:F5:5B:5A:CD:8E:21:A3:CA:88:6F:AF:90:59:C1:62
                DirName:/CN=Certification Authority/O=mpcNET/C=IT
                serial:00

            X509v3 Subject Alternative Name: 
                <EMPTY>

            X509v3 Issuer Alternative Name: 
                <EMPTY>

            Netscape CA Revocation Url: 
                https://www.mpcnet.org/cgi-bin/getcrl
            Netscape Revocation Url: 
                https://www.mpcnet.org/cgi-bin/getcrl
            Netscape Renewal Url: 
                https://www.mpcnet.org:4443/renewal
    Signature Algorithm: md5WithRSAEncryption
        6d:e7:64:7a:7b:fa:13:62:1e:ce:b5:cf:ff:8d:95:a7:2a:fc:
        e1:45:24:26:02:b8:69:ac:a3:dd:0d:3c:89:c2:97:c8:12:23:
        05:98:5e:be:ae:26:e0:7f:b1:9f:fb:1c:f8:0e:70:4a:20:7e:
        70:ff:76:b1:5d:ff:e3:4f:13:1e:1a:5a:6f:17:74:9d:60:d9:
        fd:2c:65:a6:b5:dd:6d:c5:63:3e:3f:29:20:74:f8:07:4a:bd:
        3a:85:47:6a:ce:3f:79:f2:21:19:a4:dd:b3:be:4a:8c:54:41:
        ce:52:2e:1b:4a:f8:3e:ed:3c:ea:d5:41:65:72:b4:ca:99:52:
        59:86:75:67:e2:55:5f:56:89:94:e3:08:97:b2:eb:8b:24:4b:
        9c:c6:ad:42:3a:ee:92:75:97:2c:7a:23:44:7e:30:8f:0e:09:
        42:bc:6f:5d:66:76:c3:49:0c:e3:00:a2:d5:32:c0:d0:f8:40:
        df:cc:1f:cb:fa:3e:ef:ee:bf:18:f0:fb:a5:15:df:4e:15:8a:
        30:42:a0:67:91:40:ae:4b:38:44:13:9c:79:70:0e:65:22:2b:
        76:92:20:6e:ff:9f:e2:27:ec:7d:57:1c:73:6f:6a:dc:85:d5:
        a7:e8:07:97:01:73:cb:18:d4:64:fd:f4:64:c9:d3:46:3e:46:
        af:79:7d:ad

-----BEGIN CERTIFICATE-----
MIIERzCCAy+gAwIBAgIBAzANBgkqhkiG9w0BAQQFADBAMSAwHgYDVQQDExdDZXJ0
aWZpY2F0aW9uIEF1dGhvcml0eTEPMA0GA1UEChMGbXBjTkVUMQswCQYDVQQGEwJJ
VDAeFw0wMDAyMjIxODEyNTRaFw0wMTAyMjExODEyNTRaMHgxJzAlBgkqhkiG9w0B
CQEWGG1hZHdvbGZAY29tdW5lLm1vZGVuYS5pdDEaMBgGA1UEAxMRTWFzc2ltaWxp
YW5vIFBhbGExEzARBgNVBAsTCkNBIE1hbmFnZXIxDzANBgNVBAoTBm1wY05FVDEL
MAkGA1UEBhMCSVQwgZ8wDQYJKoZIhvcNAQEBBQADgY0AMIGJAoGBALsJhgi7gs2o
RzmaBaIrQSZpLS12JMa5O1o26bvJLcmTjvCjEBzILIt7xbJJAaDD8GhcOhrDUt8Z
LycnnaoUNDD19veLdxe9oL0eroR4vHNviCEwKtoa10GKQx2ClIuw91DXLSnOTJom
Sa1afBkNi0+k8bZuoHRpU2Mrw74pZUjJAgMBAAGjggGWMIIBkjAJBgNVHRMEAjAA
MBEGCWCGSAGG+EIBAQQEAwIFoDALBgNVHQ8EBAMCBeAwJgYJYIZIAYb4QgENBBkW
F21wY05FVCBVc2VyIENlcnRpZmljYXRlMB0GA1UdDgQWBBTCJF2sEoALTY8rvHr+
5oacNSknXTBoBgNVHSMEYTBfgBT2JPbzn/VbWs2OIaPKiG+vkFnBYqFEpEIwQDEg
MB4GA1UEAxMXQ2VydGlmaWNhdGlvbiBBdXRob3JpdHkxDzANBgNVBAoTBm1wY05F
VDELMAkGA1UEBhMCSVSCAQAwCQYDVR0RBAIwADAJBgNVHRIEAjAAMDQGCWCGSAGG
+EIBBAQnFiVodHRwczovL3d3dy5tcGNuZXQub3JnL2NnaS1iaW4vZ2V0Y3JsMDQG
CWCGSAGG+EIBAwQnFiVodHRwczovL3d3dy5tcGNuZXQub3JnL2NnaS1iaW4vZ2V0
Y3JsMDIGCWCGSAGG+EIBBwQlFiNodHRwczovL3d3dy5tcGNuZXQub3JnOjQ0NDMv
cmVuZXdhbDANBgkqhkiG9w0BAQQFAAOCAQEAbedkenv6E2IezrXP/42Vpyr84UUk
JgK4aayj3Q08icKXyBIjBZhevq4m4H+xn/sc+A5wSiB+cP92sV3/408THhpabxd0
nWDZ/SxlprXdbcVjPj8pIHT4B0q9OoVHas4/efIhGaTds75KjFRBzlIuG0r4Pu08
6tVBZXK0yplSWYZ1Z+JVX1aJlOMIl7LriyRLnMatQjruknWXLHojRH4wjw4JQrxv
XWZ2w0kM4wCi1TLA0PhA38wfy/o+7+6/GPD7pRXfThWKMEKgZ5FArks4RBOceXAO
ZSIrdpIgbv+f4ifsfVccc29q3IXVp+gHlwFzyxjUZP30ZMnTRj5Gr3l9rQ==
-----END CERTIFICATE-----

